target datalayout = "e-m:e-p270:32:32-p271:32:32-p272:64:64-i64:64-f80:128-n8:16:32:64-S128"
target triple = "x86_64-pc-linux-gnu"

@.str = private unnamed_addr constant [6 x i8] c"%d %d\00", align 1
@m = common dso_local global i32 0, align 4
@n = common dso_local global i32 0, align 4
@i = common dso_local global i32 0, align 4
@.str.1 = private unnamed_addr constant [3 x i8] c"%d\00", align 1
@a = common dso_local global [1000 x i32] zeroinitializer, align 16
@b = common dso_local global [1000 x i32] zeroinitializer, align 16
@j = common dso_local global i32 0, align 4
@.str.2 = private unnamed_addr constant [2 x i8] c" \00", align 1
@.str.3 = private unnamed_addr constant [2 x i8] c"\0A\00", align 1

; Function Attrs: noinline nounwind uwtable
define dso_local void @read() #0 {
  %1 = call i32 (i8*, ...) @__isoc99_scanf(i8* getelementptr inbounds ([6 x i8], [6 x i8]* @.str, i64 0, i64 0), i32* @m, i32* @n)
  store i32 0, i32* @i, align 4
  br label %2

2:                                                ; preds = %11, %0
  %3 = load i32, i32* @i, align 4
  %4 = load i32, i32* @m, align 4
  %5 = icmp slt i32 %3, %4
  br i1 %5, label %6, label %14

6:                                                ; preds = %2
  %7 = load i32, i32* @i, align 4
  %8 = sext i32 %7 to i64
  %9 = getelementptr inbounds [1000 x i32], [1000 x i32]* @a, i64 0, i64 %8
  %10 = call i32 (i8*, ...) @__isoc99_scanf(i8* getelementptr inbounds ([3 x i8], [3 x i8]* @.str.1, i64 0, i64 0), i32* %9)
  br label %11

11:                                               ; preds = %6
  %12 = load i32, i32* @i, align 4
  %13 = add nsw i32 %12, 1
  store i32 %13, i32* @i, align 4
  br label %2

14:                                               ; preds = %2
  store i32 0, i32* @i, align 4
  br label %15

15:                                               ; preds = %24, %14
  %16 = load i32, i32* @i, align 4
  %17 = load i32, i32* @n, align 4
  %18 = icmp slt i32 %16, %17
  br i1 %18, label %19, label %27

19:                                               ; preds = %15
  %20 = load i32, i32* @i, align 4
  %21 = sext i32 %20 to i64
  %22 = getelementptr inbounds [1000 x i32], [1000 x i32]* @b, i64 0, i64 %21
  %23 = call i32 (i8*, ...) @__isoc99_scanf(i8* getelementptr inbounds ([3 x i8], [3 x i8]* @.str.1, i64 0, i64 0), i32* %22)
  br label %24

24:                                               ; preds = %19
  %25 = load i32, i32* @i, align 4
  %26 = add nsw i32 %25, 1
  store i32 %26, i32* @i, align 4
  br label %15

27:                                               ; preds = %15
  ret void
}

; Function Attrs: noinline nounwind uwtable
define dso_local void @sort() #0 {
  %1 = alloca i32, align 4
  store i32 0, i32* @i, align 4
  br label %2

2:                                                ; preds = %44, %0
  %3 = load i32, i32* @i, align 4
  %4 = load i32, i32* @m, align 4
  %5 = sub nsw i32 %4, 1
  %6 = icmp slt i32 %3, %5
  br i1 %6, label %7, label %47

7:                                                ; preds = %2
  %8 = load i32, i32* @i, align 4
  store i32 %8, i32* @j, align 4
  br label %9

9:                                                ; preds = %40, %7
  %10 = load i32, i32* @j, align 4
  %11 = load i32, i32* @m, align 4
  %12 = icmp slt i32 %10, %11
  br i1 %12, label %13, label %43

13:                                               ; preds = %9
  %14 = load i32, i32* @j, align 4
  %15 = sext i32 %14 to i64
  %16 = getelementptr inbounds [1000 x i32], [1000 x i32]* @a, i64 0, i64 %15
  %17 = load i32, i32* %16, align 4
  %18 = load i32, i32* @i, align 4
  %19 = sext i32 %18 to i64
  %20 = getelementptr inbounds [1000 x i32], [1000 x i32]* @a, i64 0, i64 %19
  %21 = load i32, i32* %20, align 4
  %22 = icmp slt i32 %17, %21
  br i1 %22, label %23, label %39

23:                                               ; preds = %13
  %24 = load i32, i32* @j, align 4
  %25 = sext i32 %24 to i64
  %26 = getelementptr inbounds [1000 x i32], [1000 x i32]* @a, i64 0, i64 %25
  %27 = load i32, i32* %26, align 4
  store i32 %27, i32* %1, align 4
  %28 = load i32, i32* @i, align 4
  %29 = sext i32 %28 to i64
  %30 = getelementptr inbounds [1000 x i32], [1000 x i32]* @a, i64 0, i64 %29
  %31 = load i32, i32* %30, align 4
  %32 = load i32, i32* @j, align 4
  %33 = sext i32 %32 to i64
  %34 = getelementptr inbounds [1000 x i32], [1000 x i32]* @a, i64 0, i64 %33
  store i32 %31, i32* %34, align 4
  %35 = load i32, i32* %1, align 4
  %36 = load i32, i32* @i, align 4
  %37 = sext i32 %36 to i64
  %38 = getelementptr inbounds [1000 x i32], [1000 x i32]* @a, i64 0, i64 %37
  store i32 %35, i32* %38, align 4
  br label %39

39:                                               ; preds = %23, %13
  br label %40

40:                                               ; preds = %39
  %41 = load i32, i32* @j, align 4
  %42 = add nsw i32 %41, 1
  store i32 %42, i32* @j, align 4
  br label %9

43:                                               ; preds = %9
  br label %44

44:                                               ; preds = %43
  %45 = load i32, i32* @i, align 4
  %46 = add nsw i32 %45, 1
  store i32 %46, i32* @i, align 4
  br label %2

47:                                               ; preds = %2
  store i32 0, i32* @i, align 4
  br label %48

48:                                               ; preds = %90, %47
  %49 = load i32, i32* @i, align 4
  %50 = load i32, i32* @n, align 4
  %51 = sub nsw i32 %50, 1
  %52 = icmp slt i32 %49, %51
  br i1 %52, label %53, label %93

53:                                               ; preds = %48
  %54 = load i32, i32* @i, align 4
  store i32 %54, i32* @j, align 4
  br label %55

55:                                               ; preds = %86, %53
  %56 = load i32, i32* @j, align 4
  %57 = load i32, i32* @n, align 4
  %58 = icmp slt i32 %56, %57
  br i1 %58, label %59, label %89

59:                                               ; preds = %55
  %60 = load i32, i32* @j, align 4
  %61 = sext i32 %60 to i64
  %62 = getelementptr inbounds [1000 x i32], [1000 x i32]* @b, i64 0, i64 %61
  %63 = load i32, i32* %62, align 4
  %64 = load i32, i32* @i, align 4
  %65 = sext i32 %64 to i64
  %66 = getelementptr inbounds [1000 x i32], [1000 x i32]* @b, i64 0, i64 %65
  %67 = load i32, i32* %66, align 4
  %68 = icmp slt i32 %63, %67
  br i1 %68, label %69, label %85

69:                                               ; preds = %59
  %70 = load i32, i32* @j, align 4
  %71 = sext i32 %70 to i64
  %72 = getelementptr inbounds [1000 x i32], [1000 x i32]* @b, i64 0, i64 %71
  %73 = load i32, i32* %72, align 4
  store i32 %73, i32* %1, align 4
  %74 = load i32, i32* @i, align 4
  %75 = sext i32 %74 to i64
  %76 = getelementptr inbounds [1000 x i32], [1000 x i32]* @b, i64 0, i64 %75
  %77 = load i32, i32* %76, align 4
  %78 = load i32, i32* @j, align 4
  %79 = sext i32 %78 to i64
  %80 = getelementptr inbounds [1000 x i32], [1000 x i32]* @b, i64 0, i64 %79
  store i32 %77, i32* %80, align 4
  %81 = load i32, i32* %1, align 4
  %82 = load i32, i32* @i, align 4
  %83 = sext i32 %82 to i64
  %84 = getelementptr inbounds [1000 x i32], [1000 x i32]* @b, i64 0, i64 %83
  store i32 %81, i32* %84, align 4
  br label %85

85:                                               ; preds = %69, %59
  br label %86

86:                                               ; preds = %85
  %87 = load i32, i32* @j, align 4
  %88 = add nsw i32 %87, 1
  store i32 %88, i32* @j, align 4
  br label %55

89:                                               ; preds = %55
  br label %90

90:                                               ; preds = %89
  %91 = load i32, i32* @i, align 4
  %92 = add nsw i32 %91, 1
  store i32 %92, i32* @i, align 4
  br label %48

93:                                               ; preds = %48
  ret void
}

; Function Attrs: noinline nounwind uwtable
define dso_local void @add() #0 {
  %1 = load i32, i32* @m, align 4
  store i32 %1, i32* @i, align 4
  store i32 0, i32* @j, align 4
  br label %2

2:                                                ; preds = %14, %0
  %3 = load i32, i32* @j, align 4
  %4 = load i32, i32* @n, align 4
  %5 = icmp slt i32 %3, %4
  br i1 %5, label %6, label %19

6:                                                ; preds = %2
  %7 = load i32, i32* @j, align 4
  %8 = sext i32 %7 to i64
  %9 = getelementptr inbounds [1000 x i32], [1000 x i32]* @b, i64 0, i64 %8
  %10 = load i32, i32* %9, align 4
  %11 = load i32, i32* @i, align 4
  %12 = sext i32 %11 to i64
  %13 = getelementptr inbounds [1000 x i32], [1000 x i32]* @a, i64 0, i64 %12
  store i32 %10, i32* %13, align 4
  br label %14

14:                                               ; preds = %6
  %15 = load i32, i32* @i, align 4
  %16 = add nsw i32 %15, 1
  store i32 %16, i32* @i, align 4
  %17 = load i32, i32* @j, align 4
  %18 = add nsw i32 %17, 1
  store i32 %18, i32* @j, align 4
  br label %2

19:                                               ; preds = %2
  ret void
}

; Function Attrs: noinline nounwind uwtable
define dso_local void @print() #0 {
  store i32 0, i32* @i, align 4
  br label %1

1:                                                ; preds = %18, %0
  %2 = load i32, i32* @i, align 4
  %3 = load i32, i32* @m, align 4
  %4 = load i32, i32* @n, align 4
  %5 = add nsw i32 %3, %4
  %6 = icmp slt i32 %2, %5
  br i1 %6, label %7, label %21

7:                                                ; preds = %1
  %8 = load i32, i32* @i, align 4
  %9 = icmp ne i32 %8, 0
  br i1 %9, label %10, label %12

10:                                               ; preds = %7
  %11 = call i32 (i8*, ...) @printf(i8* getelementptr inbounds ([2 x i8], [2 x i8]* @.str.2, i64 0, i64 0))
  br label %12

12:                                               ; preds = %10, %7
  %13 = load i32, i32* @i, align 4
  %14 = sext i32 %13 to i64
  %15 = getelementptr inbounds [1000 x i32], [1000 x i32]* @a, i64 0, i64 %14
  %16 = load i32, i32* %15, align 4
  %17 = call i32 (i8*, ...) @printf(i8* getelementptr inbounds ([3 x i8], [3 x i8]* @.str.1, i64 0, i64 0), i32 %16)
  br label %18

18:                                               ; preds = %12
  %19 = load i32, i32* @i, align 4
  %20 = add nsw i32 %19, 1
  store i32 %20, i32* @i, align 4
  br label %1

21:                                               ; preds = %1
  %22 = call i32 (i8*, ...) @printf(i8* getelementptr inbounds ([2 x i8], [2 x i8]* @.str.3, i64 0, i64 0))
  ret void
}

; Function Attrs: noinline nounwind uwtable
define dso_local void @main() #0 {
  call void @read()
  call void @sort()
  call void @add()
  call void @print()
  ret void
}